target datalayout = "e-m:e-p270:32:32-p271:32:32-p272:64:64-i64:64-i128:128-f80:128-n8:16:32:64-S128"
target triple = "x86_64-pc-linux-gnu"

%struct.Abc_Frame_t_ = type { ptr, ptr, ptr, ptr, ptr, ptr, ptr, ptr, ptr, ptr, i32, i32, i32, i32, i32, ptr, float, float, i32, i32, ptr, ptr, ptr, double, double, ptr, ptr, ptr, ptr, ptr, ptr, ptr, ptr, ptr, ptr, ptr, ptr, float, ptr, i32, ptr, ptr, ptr, ptr, ptr, i32, i32, i32, i32, i32, i32, ptr, ptr, ptr, ptr, ptr, ptr, i32, i32, ptr, ptr, ptr, ptr, ptr, ptr, ptr, ptr, ptr, ptr, ptr, ptr, ptr, ptr, ptr, ptr, ptr, ptr, ptr, ptr, ptr, ptr, ptr, ptr, ptr, ptr, ptr, ptr, ptr, ptr }

; Function Attrs: nounwind uwtable
define i32 @Cmd_CommandExecute(ptr noundef %0, ptr noundef %1) #0 {
  %3 = alloca ptr, align 8
  %4 = alloca ptr, align 8
  %5 = alloca i32, align 4
  %6 = alloca i32, align 4
  %7 = alloca i32, align 4
  %8 = alloca ptr, align 8
  %9 = alloca ptr, align 8
  store ptr %0, ptr %3, align 8, !tbaa !3
  store ptr %1, ptr %4, align 8, !tbaa !8
  call void @llvm.lifetime.start.p0(i64 4, ptr %5) #8
  store i32 0, ptr %5, align 4, !tbaa !27
  call void @llvm.lifetime.start.p0(i64 4, ptr %6) #8
  call void @llvm.lifetime.start.p0(i64 4, ptr %7) #8
  call void @llvm.lifetime.start.p0(i64 8, ptr %8) #8
  call void @llvm.lifetime.start.p0(i64 8, ptr %9) #8
  %10 = load ptr, ptr %3, align 8, !tbaa !3
  %11 = getelementptr inbounds nuw %struct.Abc_Frame_t_, ptr %10, i32 0, i32 12
  %12 = load i32, ptr %11, align 8, !tbaa !49
  %13 = icmp ne i32 %12, 0
  br i1 %13, label %22, label %14

14:                                               ; preds = %2
  %15 = load ptr, ptr %3, align 8, !tbaa !3
  %16 = getelementptr inbounds nuw %struct.Abc_Frame_t_, ptr %15, i32 0, i32 11
  %17 = load i32, ptr %16, align 4, !tbaa !50
  %18 = icmp ne i32 %17, 0
  br i1 %18, label %22, label %19

19:                                               ; preds = %14
  %20 = load ptr, ptr %3, align 8, !tbaa !3
  %21 = load ptr, ptr %4, align 8, !tbaa !8
  call void @Cmd_HistoryAddCommand(ptr noundef %20, ptr noundef %21)
  br label %22

22:                                               ; preds = %19, %14, %2
  %23 = load ptr, ptr %4, align 8, !tbaa !8
  store ptr %23, ptr %8, align 8, !tbaa !8
  br label %24

24:                                               ; preds = %58, %22
  %25 = load ptr, ptr %8, align 8, !tbaa !8
  %26 = getelementptr inbounds i8, ptr %25, i64 0
  %27 = load i8, ptr %26, align 1, !tbaa !51
  %28 = sext i8 %27 to i32
  %29 = icmp eq i32 %28, 35
  br i1 %29, label %30, label %36

30:                                               ; preds = %24
  %31 = load ptr, ptr %3, align 8, !tbaa !3
  %32 = load ptr, ptr %8, align 8, !tbaa !8
  %33 = call i32 @Cmd_CommandHandleSpecial(ptr noundef %31, ptr noundef %32)
  %34 = icmp ne i32 %33, 0
  br i1 %34, label %35, label %36

35:                                               ; preds = %30
  br label %60

36:                                               ; preds = %30, %24
  %37 = load ptr, ptr %3, align 8, !tbaa !3
  %38 = load ptr, ptr %8, align 8, !tbaa !8
  %39 = call ptr @CmdSplitLine(ptr noundef %37, ptr noundef %38, ptr noundef %6, ptr noundef %9)
  store ptr %39, ptr %8, align 8, !tbaa !8
  store i32 0, ptr %7, align 4, !tbaa !27
  %40 = load ptr, ptr %3, align 8, !tbaa !3
  %41 = call i32 @CmdApplyAlias(ptr noundef %40, ptr noundef %6, ptr noundef %9, ptr noundef %7)
  store i32 %41, ptr %5, align 4, !tbaa !27
  %42 = load i32, ptr %5, align 4, !tbaa !27
  %43 = icmp eq i32 %42, 0
  br i1 %43, label %44, label %47

44:                                               ; preds = %36
  %45 = load ptr, ptr %3, align 8, !tbaa !3
  %46 = call i32 @CmdCommandDispatch(ptr noundef %45, ptr noundef %6, ptr noundef %9)
  store i32 %46, ptr %5, align 4, !tbaa !27
  br label %47

47:                                               ; preds = %44, %36
  %48 = load i32, ptr %6, align 4, !tbaa !27
  %49 = load ptr, ptr %9, align 8, !tbaa !52
  call void @CmdFreeArgv(i32 noundef %48, ptr noundef %49)
  br label %50

50:                                               ; preds = %47
  %51 = load i32, ptr %5, align 4, !tbaa !27
  %52 = icmp eq i32 %51, 0
  br i1 %52, label %53, label %58

53:                                               ; preds = %50
  %54 = load ptr, ptr %8, align 8, !tbaa !8
  %55 = load i8, ptr %54, align 1, !tbaa !51
  %56 = sext i8 %55 to i32
  %57 = icmp ne i32 %56, 0
  br label %58

58:                                               ; preds = %53, %50
  %59 = phi i1 [ false, %50 ], [ %57, %53 ]
  br i1 %59, label %24, label %60, !llvm.loop !54

60:                                               ; preds = %58, %35
  %61 = load i32, ptr %5, align 4, !tbaa !27
  call void @llvm.lifetime.end.p0(i64 8, ptr %9) #8
  call void @llvm.lifetime.end.p0(i64 8, ptr %8) #8
  call void @llvm.lifetime.end.p0(i64 4, ptr %7) #8
  call void @llvm.lifetime.end.p0(i64 4, ptr %6) #8
  call void @llvm.lifetime.end.p0(i64 4, ptr %5) #8
  ret i32 %61
}