; Function Attrs: nounwind uwtable
define i32 @Cmd_CommandExecute(ptr noundef %0, ptr noundef %1) local_unnamed_addr #0 {
  %3 = alloca i32, align 4
  %4 = alloca i32, align 4
  %5 = alloca ptr, align 8
  call void @llvm.lifetime.start.p0(i64 4, ptr nonnull %3) #8
  call void @llvm.lifetime.start.p0(i64 4, ptr nonnull %4) #8
  call void @llvm.lifetime.start.p0(i64 8, ptr nonnull %5) #8
  %6 = getelementptr inbounds nuw i8, ptr %0, i64 88
  %7 = load i32, ptr %6, align 8, !tbaa !44
  %.not = icmp eq i32 %7, 0
  br i1 %.not, label %8, label %12

8:                                                ; preds = %2
  %9 = getelementptr inbounds nuw i8, ptr %0, i64 84
  %10 = load i32, ptr %9, align 4, !tbaa !45
  %.not17 = icmp eq i32 %10, 0
  br i1 %.not17, label %11, label %12

11:                                               ; preds = %8
  tail call void @Cmd_HistoryAddCommand(ptr noundef nonnull %0, ptr noundef %1) #8
  br label %12

12:                                               ; preds = %11, %8, %2
  %.pr = load i8, ptr %1, align 1, !tbaa !46
  br label %13

13:                                               ; preds = %28, %12
  %14 = phi i8 [ %29, %28 ], [ %.pr, %12 ]
  %.0 = phi ptr [ %19, %28 ], [ %1, %12 ]
  %15 = icmp eq i8 %14, 35
  br i1 %15, label %16, label %18

16:                                               ; preds = %13
  %17 = call i32 @Cmd_CommandHandleSpecial(ptr noundef %0, ptr noundef nonnull %.0)
  %.not18 = icmp eq i32 %17, 0
  br i1 %.not18, label %18, label %.critedge

18:                                               ; preds = %16, %13
  %19 = call ptr @CmdSplitLine(ptr noundef %0, ptr noundef nonnull %.0, ptr noundef nonnull %3, ptr noundef nonnull %5) #8
  store i32 0, ptr %4, align 4, !tbaa !43
  %20 = call i32 @CmdApplyAlias(ptr noundef %0, ptr noundef nonnull %3, ptr noundef nonnull %5, ptr noundef nonnull %4) #8
  %21 = icmp eq i32 %20, 0
  br i1 %21, label %22, label %24

22:                                               ; preds = %18
  %23 = call i32 @CmdCommandDispatch(ptr noundef %0, ptr noundef nonnull %3, ptr noundef nonnull %5) #8
  br label %24

24:                                               ; preds = %22, %18
  %.2 = phi i32 [ %23, %22 ], [ %20, %18 ]
  %25 = load i32, ptr %3, align 4, !tbaa !43
  %26 = load ptr, ptr %5, align 8, !tbaa !47
  call void @CmdFreeArgv(i32 noundef %25, ptr noundef %26) #8
  %27 = icmp eq i32 %.2, 0
  br i1 %27, label %28, label %.critedge

28:                                               ; preds = %24
  %29 = load i8, ptr %19, align 1, !tbaa !46
  %.not19 = icmp eq i8 %29, 0
  br i1 %.not19, label %.critedge, label %13, !llvm.loop !49

.critedge:                                        ; preds = %24, %16, %28
  %.1 = phi i32 [ 0, %16 ], [ 0, %28 ], [ %.2, %24 ]
  call void @llvm.lifetime.end.p0(i64 8, ptr nonnull %5) #8
  call void @llvm.lifetime.end.p0(i64 4, ptr nonnull %4) #8
  call void @llvm.lifetime.end.p0(i64 4, ptr nonnull %3) #8
  ret i32 %.1
}